target datalayout = "e-m:e-p270:32:32-p271:32:32-p272:64:64-i64:64-i128:128-f80:128-n8:16:32:64-S128"
target triple = "x86_64-pc-linux-gnu"

%struct.Gia_Obj_t_ = type <{ i64, i32 }>
%struct.Gia_Man_t_ = type { ptr, ptr, i32, i32, i32, i32, ptr, ptr, i32, i32, i32, ptr, ptr, %struct.Vec_Int_t_, %struct.Vec_Int_t_, i32, i32, i32, %struct.Vec_Int_t_, ptr, ptr, ptr, i32, i32, i32, i32, ptr, ptr, ptr, ptr, ptr, i32, i32, ptr, i32, ptr, ptr, ptr, ptr, ptr, ptr, ptr, ptr, ptr, ptr, ptr, ptr, ptr, ptr, ptr, ptr, ptr, ptr, %struct.Vec_Int_t_, %struct.Vec_Int_t_, ptr, ptr, ptr, ptr, ptr, ptr, ptr, ptr, ptr, ptr, ptr, ptr, ptr, ptr, ptr, ptr, ptr, ptr, ptr, ptr, ptr, i32, float, float, ptr, ptr, i32, ptr, ptr, ptr, ptr, ptr, ptr, ptr, ptr, ptr, ptr, ptr, ptr, ptr, ptr, ptr, i64, i64, ptr, ptr, i32, i32, i32, i32, i32, i32, i32, i32, i32, i32, i32, i32, ptr, ptr, ptr, ptr, ptr, ptr, ptr, ptr, i32, i32, i32, ptr, i32, i32, ptr, ptr, ptr, ptr, ptr, ptr, i32, i32, ptr, %struct.Vec_Int_t_, %struct.Vec_Int_t_, %struct.Vec_Int_t_, ptr, ptr, ptr, i32, i32, i32, i32, ptr, ptr, ptr, ptr, ptr }
%struct.Vec_Int_t_ = type { i32, i32, ptr }

; Function Attrs: inlinehint nounwind uwtable
define internal ptr @Gia_ManConst0(ptr noundef %0) #2 {
  %2 = alloca ptr, align 8
  store ptr %0, ptr %2, align 8, !tbaa !3
  %3 = load ptr, ptr %2, align 8, !tbaa !3
  %4 = getelementptr inbounds nuw %struct.Gia_Man_t_, ptr %3, i32 0, i32 6
  %5 = load ptr, ptr %4, align 8, !tbaa !44
  ret ptr %5
}

; Function Attrs: inlinehint nounwind uwtable
define internal ptr @Gia_ObjFanin0(ptr noundef %0) #2 {
  %2 = alloca ptr, align 8
  store ptr %0, ptr %2, align 8, !tbaa !16
  %3 = load ptr, ptr %2, align 8, !tbaa !16
  %4 = load ptr, ptr %2, align 8, !tbaa !16
  %5 = load i64, ptr %4, align 4
  %6 = and i64 %5, 536870911
  %7 = trunc i64 %6 to i32
  %8 = sext i32 %7 to i64
  %9 = sub i64 0, %8
  %10 = getelementptr inbounds %struct.Gia_Obj_t_, ptr %3, i64 %9
  ret ptr %10
}

; Function Attrs: inlinehint nounwind uwtable
define internal ptr @Gia_ManObj(ptr noundef %0, i32 noundef %1) #2 {
  %3 = alloca ptr, align 8
  %4 = alloca i32, align 4
  store ptr %0, ptr %3, align 8, !tbaa !3
  store i32 %1, ptr %4, align 4, !tbaa !8
  %5 = load ptr, ptr %3, align 8, !tbaa !3
  %6 = getelementptr inbounds nuw %struct.Gia_Man_t_, ptr %5, i32 0, i32 6
  %7 = load ptr, ptr %6, align 8, !tbaa !44
  %8 = load i32, ptr %4, align 4, !tbaa !8
  %9 = sext i32 %8 to i64
  %10 = getelementptr inbounds %struct.Gia_Obj_t_, ptr %7, i64 %9
  ret ptr %10
}

; Function Attrs: inlinehint nounwind uwtable
define internal i32 @Vec_IntEntry(ptr noundef %0, i32 noundef %1) #2 {
  %3 = alloca ptr, align 8
  %4 = alloca i32, align 4
  store ptr %0, ptr %3, align 8, !tbaa !51
  store i32 %1, ptr %4, align 4, !tbaa !8
  %5 = load ptr, ptr %3, align 8, !tbaa !51
  %6 = getelementptr inbounds nuw %struct.Vec_Int_t_, ptr %5, i32 0, i32 2
  %7 = load ptr, ptr %6, align 8, !tbaa !56
  %8 = load i32, ptr %4, align 4, !tbaa !8
  %9 = sext i32 %8 to i64
  %10 = getelementptr inbounds i32, ptr %7, i64 %9
  %11 = load i32, ptr %10, align 4, !tbaa !8
  ret i32 %11
}

; Function Attrs: inlinehint nounwind uwtable
define internal i32 @Vec_IntSize(ptr noundef %0) #2 {
  %2 = alloca ptr, align 8
  store ptr %0, ptr %2, align 8, !tbaa !51
  %3 = load ptr, ptr %2, align 8, !tbaa !51
  %4 = getelementptr inbounds nuw %struct.Vec_Int_t_, ptr %3, i32 0, i32 1
  %5 = load i32, ptr %4, align 4, !tbaa !52
  ret i32 %5
}

; Function Attrs: inlinehint nounwind uwtable
define internal void @Vec_IntClear(ptr noundef %0) #2 {
  %2 = alloca ptr, align 8
  store ptr %0, ptr %2, align 8, !tbaa !51
  %3 = load ptr, ptr %2, align 8, !tbaa !51
  %4 = getelementptr inbounds nuw %struct.Vec_Int_t_, ptr %3, i32 0, i32 1
  store i32 0, ptr %4, align 4, !tbaa !52
  ret void
}

; Function Attrs: nounwind uwtable
define void @Bmc_MnaSelect(ptr noundef %0, ptr noundef %1, ptr noundef %2, ptr noundef %3) #0 {
  %5 = alloca ptr, align 8
  %6 = alloca ptr, align 8
  %7 = alloca ptr, align 8
  %8 = alloca ptr, align 8
  %9 = alloca ptr, align 8
  %10 = alloca i32, align 4
  store ptr %0, ptr %5, align 8, !tbaa !3
  store ptr %1, ptr %6, align 8, !tbaa !51
  store ptr %2, ptr %7, align 8, !tbaa !51
  store ptr %3, ptr %8, align 8, !tbaa !51
  call void @llvm.lifetime.start.p0(i64 8, ptr %9) #12
  call void @llvm.lifetime.start.p0(i64 4, ptr %10) #12
  %11 = load ptr, ptr %8, align 8, !tbaa !51
  call void @Vec_IntClear(ptr noundef %11)
  store i32 0, ptr %10, align 4, !tbaa !8
  br label %12

12:                                               ; preds = %31, %4
  %13 = load i32, ptr %10, align 4, !tbaa !8
  %14 = load ptr, ptr %6, align 8, !tbaa !51
  %15 = call i32 @Vec_IntSize(ptr noundef %14)
  %16 = icmp slt i32 %13, %15
  br i1 %16, label %17, label %24

17:                                               ; preds = %12
  %18 = load ptr, ptr %5, align 8, !tbaa !3
  %19 = load ptr, ptr %6, align 8, !tbaa !51
  %20 = load i32, ptr %10, align 4, !tbaa !8
  %21 = call i32 @Vec_IntEntry(ptr noundef %19, i32 noundef %20)
  %22 = call ptr @Gia_ManObj(ptr noundef %18, i32 noundef %21)
  store ptr %22, ptr %9, align 8, !tbaa !16
  %23 = icmp ne ptr %22, null
  br label %24

24:                                               ; preds = %17, %12
  %25 = phi i1 [ false, %12 ], [ %23, %17 ]
  br i1 %25, label %26, label %34

26:                                               ; preds = %24
  %27 = load ptr, ptr %5, align 8, !tbaa !3
  %28 = load ptr, ptr %9, align 8, !tbaa !16
  %29 = call ptr @Gia_ObjFanin0(ptr noundef %28)
  %30 = load ptr, ptr %8, align 8, !tbaa !51
  call void @Bmc_MnaSelect_rec(ptr noundef %27, ptr noundef %29, ptr noundef %30)
  br label %31

31:                                               ; preds = %26
  %32 = load i32, ptr %10, align 4, !tbaa !8
  %33 = add nsw i32 %32, 1
  store i32 %33, ptr %10, align 4, !tbaa !8
  br label %12, !llvm.loop !58

34:                                               ; preds = %24
  %35 = load ptr, ptr %5, align 8, !tbaa !3
  %36 = call ptr @Gia_ManConst0(ptr noundef %35)
  %37 = load i64, ptr %36, align 4
  %38 = and i64 %37, 9223372036854775807
  %39 = or i64 %38, 0
  store i64 %39, ptr %36, align 4
  store i32 0, ptr %10, align 4, !tbaa !8
  br label %40

40:                                               ; preds = %59, %34
  %41 = load i32, ptr %10, align 4, !tbaa !8
  %42 = load ptr, ptr %7, align 8, !tbaa !51
  %43 = call i32 @Vec_IntSize(ptr noundef %42)
  %44 = icmp slt i32 %41, %43
  br i1 %44, label %45, label %52

45:                                               ; preds = %40
  %46 = load ptr, ptr %5, align 8, !tbaa !3
  %47 = load ptr, ptr %7, align 8, !tbaa !51
  %48 = load i32, ptr %10, align 4, !tbaa !8
  %49 = call i32 @Vec_IntEntry(ptr noundef %47, i32 noundef %48)
  %50 = call ptr @Gia_ManObj(ptr noundef %46, i32 noundef %49)
  store ptr %50, ptr %9, align 8, !tbaa !16
  %51 = icmp ne ptr %50, null
  br label %52

52:                                               ; preds = %45, %40
  %53 = phi i1 [ false, %40 ], [ %51, %45 ]
  br i1 %53, label %54, label %62

54:                                               ; preds = %52
  %55 = load ptr, ptr %9, align 8, !tbaa !16
  %56 = load i64, ptr %55, align 4
  %57 = and i64 %56, 9223372036854775807
  %58 = or i64 %57, 0
  store i64 %58, ptr %55, align 4
  br label %59

59:                                               ; preds = %54
  %60 = load i32, ptr %10, align 4, !tbaa !8
  %61 = add nsw i32 %60, 1
  store i32 %61, ptr %10, align 4, !tbaa !8
  br label %40, !llvm.loop !59

62:                                               ; preds = %52
  call void @llvm.lifetime.end.p0(i64 4, ptr %10) #12
  call void @llvm.lifetime.end.p0(i64 8, ptr %9) #12
  ret void
}