; Function Attrs: nounwind uwtable
define void @Bmc_MnaSelect(ptr noundef readonly captures(none) %0, ptr noundef readonly captures(none) %1, ptr noundef readonly captures(none) %2, ptr noundef captures(none) initializes((4, 8)) %3) local_unnamed_addr #0 {
  %5 = getelementptr inbounds nuw i8, ptr %3, i64 4
  store i32 0, ptr %5, align 4, !tbaa !28
  %6 = getelementptr i8, ptr %0, i64 32
  %7 = getelementptr i8, ptr %1, i64 4
  %.val2228 = load i32, ptr %7, align 4, !tbaa !28
  %8 = icmp sgt i32 %.val2228, 0
  br i1 %8, label %.lr.ph, label %.critedge

.lr.ph:                                           ; preds = %4
  %9 = getelementptr i8, ptr %1, i64 8
  br label %10

10:                                               ; preds = %.lr.ph, %11
  %indvars.iv = phi i64 [ 0, %.lr.ph ], [ %indvars.iv.next, %11 ]
  %.val27 = load ptr, ptr %6, align 8, !tbaa !32
  %.not = icmp eq ptr %.val27, null
  br i1 %.not, label %.critedge, label %11

11:                                               ; preds = %10
  %.val25 = load ptr, ptr %9, align 8, !tbaa !37
  %12 = getelementptr inbounds nuw i32, ptr %.val25, i64 %indvars.iv
  %13 = load i32, ptr %12, align 4, !tbaa !38
  %14 = sext i32 %13 to i64
  %15 = getelementptr inbounds %struct.Gia_Obj_t_, ptr %.val27, i64 %14
  %16 = load i64, ptr %15, align 4
  %17 = and i64 %16, 536870911
  %18 = sub nsw i64 0, %17
  %19 = getelementptr inbounds %struct.Gia_Obj_t_, ptr %15, i64 %18
  tail call void @Bmc_MnaSelect_rec(ptr noundef nonnull %0, ptr noundef nonnull %19, ptr noundef %3)
  %indvars.iv.next = add nuw nsw i64 %indvars.iv, 1
  %.val22 = load i32, ptr %7, align 4, !tbaa !28
  %20 = sext i32 %.val22 to i64
  %21 = icmp slt i64 %indvars.iv.next, %20
  br i1 %21, label %10, label %.critedge, !llvm.loop !54

.critedge:                                        ; preds = %10, %11, %4
  %.val23 = load ptr, ptr %6, align 8, !tbaa !32
  %22 = load i64, ptr %.val23, align 4
  %23 = and i64 %22, 9223372036854775807
  store i64 %23, ptr %.val23, align 4
  %24 = getelementptr i8, ptr %2, i64 4
  %.val31 = load i32, ptr %24, align 4, !tbaa !28
  %25 = icmp sgt i32 %.val31, 0
  br i1 %25, label %.lr.ph33, label %.critedge2

.lr.ph33:                                         ; preds = %.critedge
  %26 = getelementptr i8, ptr %2, i64 8
  br label %27

27:                                               ; preds = %.lr.ph33, %28
  %indvars.iv36 = phi i64 [ 0, %.lr.ph33 ], [ %indvars.iv.next37, %28 ]
  %.val26 = load ptr, ptr %6, align 8, !tbaa !32
  %.not21 = icmp eq ptr %.val26, null
  br i1 %.not21, label %.critedge2, label %28

28:                                               ; preds = %27
  %.val24 = load ptr, ptr %26, align 8, !tbaa !37
  %29 = getelementptr inbounds nuw i32, ptr %.val24, i64 %indvars.iv36
  %30 = load i32, ptr %29, align 4, !tbaa !38
  %31 = sext i32 %30 to i64
  %32 = getelementptr inbounds %struct.Gia_Obj_t_, ptr %.val26, i64 %31
  %33 = load i64, ptr %32, align 4
  %34 = and i64 %33, 9223372036854775807
  store i64 %34, ptr %32, align 4
  %indvars.iv.next37 = add nuw nsw i64 %indvars.iv36, 1
  %.val = load i32, ptr %24, align 4, !tbaa !28
  %35 = sext i32 %.val to i64
  %36 = icmp slt i64 %indvars.iv.next37, %35
  br i1 %36, label %27, label %.critedge2, !llvm.loop !55

.critedge2:                                       ; preds = %27, %28, %.critedge
  ret void
}